target datalayout = "e-m:e-p270:32:32-p271:32:32-p272:64:64-i64:64-i128:128-f80:128-n8:16:32:64-S128"
target triple = "x86_64-pc-linux-gnu"

%struct.jpeg_compress_struct = type { ptr, ptr, ptr, ptr, i32, i32, ptr, i32, i32, i32, i32, double, i32, i32, i32, ptr, [4 x ptr], [4 x ptr], [4 x ptr], [16 x i8], [16 x i8], [16 x i8], i32, ptr, i32, i32, i32, i32, i32, i32, i32, i32, i32, i8, i8, i8, i16, i16, i32, i32, i32, i32, i32, i32, i32, [4 x ptr], i32, i32, i32, [10 x i32], i32, i32, i32, i32, ptr, ptr, ptr, ptr, ptr, ptr, ptr, ptr, ptr, ptr, i32 }
%struct.jpeg_error_mgr = type { ptr, ptr, ptr, ptr, ptr, i32, %union.anon, i32, i64, ptr, i32, ptr, i32, i32 }
%union.anon = type { [8 x i32], [48 x i8] }
%struct.jpeg_destination_mgr = type { ptr, i64, ptr, ptr, ptr }
%struct.jpeg_comp_master = type { ptr, ptr, ptr, i32, i32, i32 }

; Function Attrs: nounwind uwtable
define void @jpeg_start_compress(ptr noundef %0, i32 noundef %1) #0 {
  %3 = alloca ptr, align 8
  %4 = alloca i32, align 4
  store ptr %0, ptr %3, align 8, !tbaa !3
  store i32 %1, ptr %4, align 4, !tbaa !8
  %5 = load ptr, ptr %3, align 8, !tbaa !3
  %6 = getelementptr inbounds nuw %struct.jpeg_compress_struct, ptr %5, i32 0, i32 5
  %7 = load i32, ptr %6, align 4, !tbaa !10
  %8 = icmp ne i32 %7, 100
  br i1 %8, label %9, label %28

9:                                                ; preds = %2
  %10 = load ptr, ptr %3, align 8, !tbaa !3
  %11 = getelementptr inbounds nuw %struct.jpeg_compress_struct, ptr %10, i32 0, i32 0
  %12 = load ptr, ptr %11, align 8, !tbaa !27
  %13 = getelementptr inbounds nuw %struct.jpeg_error_mgr, ptr %12, i32 0, i32 5
  store i32 20, ptr %13, align 8, !tbaa !28
  %14 = load ptr, ptr %3, align 8, !tbaa !3
  %15 = getelementptr inbounds nuw %struct.jpeg_compress_struct, ptr %14, i32 0, i32 5
  %16 = load i32, ptr %15, align 4, !tbaa !10
  %17 = load ptr, ptr %3, align 8, !tbaa !3
  %18 = getelementptr inbounds nuw %struct.jpeg_compress_struct, ptr %17, i32 0, i32 0
  %19 = load ptr, ptr %18, align 8, !tbaa !27
  %20 = getelementptr inbounds nuw %struct.jpeg_error_mgr, ptr %19, i32 0, i32 6
  %21 = getelementptr inbounds [8 x i32], ptr %20, i64 0, i64 0
  store i32 %16, ptr %21, align 4, !tbaa !32
  %22 = load ptr, ptr %3, align 8, !tbaa !3
  %23 = getelementptr inbounds nuw %struct.jpeg_compress_struct, ptr %22, i32 0, i32 0
  %24 = load ptr, ptr %23, align 8, !tbaa !27
  %25 = getelementptr inbounds nuw %struct.jpeg_error_mgr, ptr %24, i32 0, i32 0
  %26 = load ptr, ptr %25, align 8, !tbaa !33
  %27 = load ptr, ptr %3, align 8, !tbaa !3
  call void %26(ptr noundef %27)
  br label %28

28:                                               ; preds = %9, %2
  %29 = load i32, ptr %4, align 4, !tbaa !8
  %30 = icmp ne i32 %29, 0
  br i1 %30, label %31, label %33

31:                                               ; preds = %28
  %32 = load ptr, ptr %3, align 8, !tbaa !3
  call void @jpeg_suppress_tables(ptr noundef %32, i32 noundef 0)
  br label %33

33:                                               ; preds = %31, %28
  %34 = load ptr, ptr %3, align 8, !tbaa !3
  %35 = getelementptr inbounds nuw %struct.jpeg_compress_struct, ptr %34, i32 0, i32 0
  %36 = load ptr, ptr %35, align 8, !tbaa !27
  %37 = getelementptr inbounds nuw %struct.jpeg_error_mgr, ptr %36, i32 0, i32 4
  %38 = load ptr, ptr %37, align 8, !tbaa !34
  %39 = load ptr, ptr %3, align 8, !tbaa !3
  call void %38(ptr noundef %39)
  %40 = load ptr, ptr %3, align 8, !tbaa !3
  %41 = getelementptr inbounds nuw %struct.jpeg_compress_struct, ptr %40, i32 0, i32 6
  %42 = load ptr, ptr %41, align 8, !tbaa !35
  %43 = getelementptr inbounds nuw %struct.jpeg_destination_mgr, ptr %42, i32 0, i32 2
  %44 = load ptr, ptr %43, align 8, !tbaa !36
  %45 = load ptr, ptr %3, align 8, !tbaa !3
  call void %44(ptr noundef %45)
  %46 = load ptr, ptr %3, align 8, !tbaa !3
  call void @jinit_compress_master(ptr noundef %46)
  %47 = load ptr, ptr %3, align 8, !tbaa !3
  %48 = getelementptr inbounds nuw %struct.jpeg_compress_struct, ptr %47, i32 0, i32 54
  %49 = load ptr, ptr %48, align 8, !tbaa !39
  %50 = getelementptr inbounds nuw %struct.jpeg_comp_master, ptr %49, i32 0, i32 0
  %51 = load ptr, ptr %50, align 8, !tbaa !40
  %52 = load ptr, ptr %3, align 8, !tbaa !3
  call void %51(ptr noundef %52)
  %53 = load ptr, ptr %3, align 8, !tbaa !3
  %54 = getelementptr inbounds nuw %struct.jpeg_compress_struct, ptr %53, i32 0, i32 39
  store i32 0, ptr %54, align 8, !tbaa !42
  %55 = load ptr, ptr %3, align 8, !tbaa !3
  %56 = getelementptr inbounds nuw %struct.jpeg_compress_struct, ptr %55, i32 0, i32 24
  %57 = load i32, ptr %56, align 8, !tbaa !43
  %58 = icmp ne i32 %57, 0
  %59 = select i1 %58, i32 102, i32 101
  %60 = load ptr, ptr %3, align 8, !tbaa !3
  %61 = getelementptr inbounds nuw %struct.jpeg_compress_struct, ptr %60, i32 0, i32 5
  store i32 %59, ptr %61, align 4, !tbaa !10
  ret void
}