; Function Attrs: nounwind uwtable
define void @jpeg_start_compress(ptr noundef %0, i32 noundef %1) local_unnamed_addr #0 {
  %3 = getelementptr inbounds nuw i8, ptr %0, i64 36
  %4 = load i32, ptr %3, align 4, !tbaa !3
  %.not = icmp eq i32 %4, 100
  br i1 %.not, label %11, label %5

5:                                                ; preds = %2
  %6 = load ptr, ptr %0, align 8, !tbaa !24
  %7 = getelementptr inbounds nuw i8, ptr %6, i64 40
  store i32 20, ptr %7, align 8, !tbaa !25
  %8 = getelementptr inbounds nuw i8, ptr %6, i64 44
  store i32 %4, ptr %8, align 4, !tbaa !29
  %9 = load ptr, ptr %0, align 8, !tbaa !24
  %10 = load ptr, ptr %9, align 8, !tbaa !30
  tail call void %10(ptr noundef nonnull %0) #4
  br label %11

11:                                               ; preds = %5, %2
  %.not17 = icmp eq i32 %1, 0
  br i1 %.not17, label %13, label %12

12:                                               ; preds = %11
  tail call void @jpeg_suppress_tables(ptr noundef nonnull %0, i32 noundef 0) #4
  br label %13

13:                                               ; preds = %12, %11
  %14 = load ptr, ptr %0, align 8, !tbaa !24
  %15 = getelementptr inbounds nuw i8, ptr %14, i64 32
  %16 = load ptr, ptr %15, align 8, !tbaa !31
  tail call void %16(ptr noundef nonnull %0) #4
  %17 = getelementptr inbounds nuw i8, ptr %0, i64 40
  %18 = load ptr, ptr %17, align 8, !tbaa !32
  %19 = getelementptr inbounds nuw i8, ptr %18, i64 16
  %20 = load ptr, ptr %19, align 8, !tbaa !33
  tail call void %20(ptr noundef nonnull %0) #4
  tail call void @jinit_compress_master(ptr noundef nonnull %0) #4
  %21 = getelementptr inbounds nuw i8, ptr %0, i64 432
  %22 = load ptr, ptr %21, align 8, !tbaa !36
  %23 = load ptr, ptr %22, align 8, !tbaa !37
  tail call void %23(ptr noundef nonnull %0) #4
  %24 = getelementptr inbounds nuw i8, ptr %0, i64 304
  store i32 0, ptr %24, align 8, !tbaa !39
  %25 = getelementptr inbounds nuw i8, ptr %0, i64 256
  %26 = load i32, ptr %25, align 8, !tbaa !40
  %.not18 = icmp eq i32 %26, 0
  %27 = select i1 %.not18, i32 101, i32 102
  store i32 %27, ptr %3, align 4, !tbaa !3
  ret void
}